target datalayout = "e-m:e-p270:32:32-p271:32:32-p272:64:64-i64:64-i128:128-f80:128-n8:16:32:64-S128"
target triple = "x86_64-pc-linux-gnu"

%class.QString = type { ptr }
%class.LayerDialog = type { %class.QDockWidget, ptr, ptr, ptr, ptr, ptr, %class.QMap, i8, [4 x %class.QString], [4 x %class.QMap.16], i32, %"class.std::vector.17", i32, ptr, ptr, i32, ptr, ptr, ptr }
%class.QDockWidget = type { %class.QWidget }
%class.QWidget = type { %class.QObject, %class.QPaintDevice, ptr }
%class.QObject = type { ptr, %class.QScopedPointer }
%class.QScopedPointer = type { ptr }
%class.QPaintDevice = type { ptr, i16, ptr }
%class.QMap = type { ptr }
%class.QMap.16 = type { ptr }
%"class.std::vector.17" = type { %"struct.std::_Vector_base.18" }
%"struct.std::_Vector_base.18" = type { %"struct.std::_Vector_base<int, std::allocator<int>>::_Vector_impl" }
%"struct.std::_Vector_base<int, std::allocator<int>>::_Vector_impl" = type { %"struct.std::_Vector_base<int, std::allocator<int>>::_Vector_impl_data" }
%"struct.std::_Vector_base<int, std::allocator<int>>::_Vector_impl_data" = type { ptr, ptr, ptr }

; Function Attrs: mustprogress nounwind uwtable
define void @_ZN11LayerDialog15clickAnimFasterEv(ptr noundef nonnull align 8 dereferenceable(256) %0) #0 align 2 {
  %2 = alloca ptr, align 8
  store ptr %0, ptr %2, align 8
  %3 = load ptr, ptr %2, align 8
  %4 = getelementptr inbounds %class.LayerDialog, ptr %3, i32 0, i32 12
  %5 = load i32, ptr %4, align 8
  %6 = icmp sgt i32 %5, 10
  br i1 %6, label %7, label %14

7:                                                ; preds = %1
  %8 = getelementptr inbounds %class.LayerDialog, ptr %3, i32 0, i32 12
  %9 = load i32, ptr %8, align 8
  %10 = sitofp i32 %9 to float
  %11 = fdiv float %10, 0x3FF3333340000000
  %12 = fptosi float %11 to i32
  %13 = getelementptr inbounds %class.LayerDialog, ptr %3, i32 0, i32 12
  store i32 %12, ptr %13, align 8
  br label %14

14:                                               ; preds = %7, %1
  ret void
}